; Function Attrs: mustprogress uwtable
define void @_ZN6icu_756number4impl13PatternParser17parseToPropertiesERKNS_13UnicodeStringER10UErrorCode(ptr noalias nonnull sret(%"struct.icu_75::number::impl::DecimalFormatProperties") align 8 %agg.result, ptr noundef nonnull align 8 dereferenceable(64) %pattern, ptr noundef nonnull align 4 dereferenceable(4) %status) local_unnamed_addr #1 align 2 personality ptr @__gxx_personality_v0 {
entry:
  tail call void @_ZN6icu_756number4impl23DecimalFormatPropertiesC1Ev(ptr noundef nonnull align 8 dereferenceable(757) %agg.result)
  invoke void @_ZN6icu_756number4impl13PatternParser29parseToExistingPropertiesImplERKNS_13UnicodeStringERNS1_23DecimalFormatPropertiesENS1_14IgnoreRoundingER10UErrorCode(ptr noundef nonnull align 8 dereferenceable(64) %pattern, ptr noundef nonnull align 8 dereferenceable(757) %agg.result, i32 noundef 0, ptr noundef nonnull align 4 dereferenceable(4) %status)
          to label %_ZN6icu_756number4impl13PatternParser17parseToPropertiesERKNS_13UnicodeStringENS1_14IgnoreRoundingER10UErrorCode.exit unwind label %lpad.i

lpad.i:                                           ; preds = %entry
  %0 = landingpad { ptr, i32 }
          cleanup
  tail call void @_ZN6icu_756number4impl23DecimalFormatPropertiesD2Ev(ptr noundef nonnull align 8 dereferenceable(757) %agg.result) #13
  resume { ptr, i32 } %0

_ZN6icu_756number4impl13PatternParser17parseToPropertiesERKNS_13UnicodeStringENS1_14IgnoreRoundingER10UErrorCode.exit: ; preds = %entry
  ret void
}